
user/_ln:     file format elf64-littleriscv


Disassembly of section .text:

0000000000000000 <main>:
#include "kernel/stat.h"
#include "user/user.h"

int
main(int argc, char *argv[])
{
   0:	1101                	addi	sp,sp,-32
   2:	ec06                	sd	ra,24(sp)
   4:	e822                	sd	s0,16(sp)
   6:	1000                	addi	s0,sp,32
  if(argc != 3){
   8:	478d                	li	a5,3
   a:	02f50163          	beq	a0,a5,2c <main+0x2c>
   e:	e426                	sd	s1,8(sp)
    fprintf(2, "Usage: ln old new\n");
  10:	00001597          	auipc	a1,0x1
  14:	80058593          	addi	a1,a1,-2048 # 810 <malloc+0x100>
  18:	4509                	li	a0,2
  1a:	00000097          	auipc	ra,0x0
  1e:	610080e7          	jalr	1552(ra) # 62a <fprintf>
    exit(1);
  22:	4505                	li	a0,1
  24:	00000097          	auipc	ra,0x0
  28:	2c4080e7          	jalr	708(ra) # 2e8 <exit>
  2c:	e426                	sd	s1,8(sp)
  2e:	84ae                	mv	s1,a1
  }
  if(link(argv[1], argv[2]) < 0)
  30:	698c                	ld	a1,16(a1)
  32:	6488                	ld	a0,8(s1)
  34:	00000097          	auipc	ra,0x0
  38:	314080e7          	jalr	788(ra) # 348 <link>
  3c:	00054763          	bltz	a0,4a <main+0x4a>
    fprintf(2, "link %s %s: failed\n", argv[1], argv[2]);
  exit(0);
  40:	4501                	li	a0,0
  42:	00000097          	auipc	ra,0x0
  46:	2a6080e7          	jalr	678(ra) # 2e8 <exit>
    fprintf(2, "link %s %s: failed\n", argv[1], argv[2]);
  4a:	6894                	ld	a3,16(s1)
  4c:	6490                	ld	a2,8(s1)
  4e:	00000597          	auipc	a1,0x0
  52:	7da58593          	addi	a1,a1,2010 # 828 <malloc+0x118>
  56:	4509                	li	a0,2
  58:	00000097          	auipc	ra,0x0
  5c:	5d2080e7          	jalr	1490(ra) # 62a <fprintf>
  60:	b7c5                	j	40 <main+0x40>

0000000000000062 <_main>:
//
// wrapper so that it's OK if main() does not call exit().
//
void
_main()
{
  62:	1141                	addi	sp,sp,-16
  64:	e406                	sd	ra,8(sp)
  66:	e022                	sd	s0,0(sp)
  68:	0800                	addi	s0,sp,16
  extern int main();
  main();
  6a:	00000097          	auipc	ra,0x0
  6e:	f96080e7          	jalr	-106(ra) # 0 <main>
  exit(0);
  72:	4501                	li	a0,0
  74:	00000097          	auipc	ra,0x0
  78:	274080e7          	jalr	628(ra) # 2e8 <exit>

000000000000007c <strcpy>:
}

char*
strcpy(char *s, const char *t)
{
  7c:	1141                	addi	sp,sp,-16
  7e:	e422                	sd	s0,8(sp)
  80:	0800                	addi	s0,sp,16
  char *os;

  os = s;
  while((*s++ = *t++) != 0)
  82:	87aa                	mv	a5,a0
  84:	0585                	addi	a1,a1,1
  86:	0785                	addi	a5,a5,1
  88:	fff5c703          	lbu	a4,-1(a1)
  8c:	fee78fa3          	sb	a4,-1(a5)
  90:	fb75                	bnez	a4,84 <strcpy+0x8>
    ;
  return os;
}
  92:	6422                	ld	s0,8(sp)
  94:	0141                	addi	sp,sp,16
  96:	8082                	ret

0000000000000098 <strcmp>:

int
strcmp(const char *p, const char *q)
{
  98:	1141                	addi	sp,sp,-16
  9a:	e422                	sd	s0,8(sp)
  9c:	0800                	addi	s0,sp,16
  while(*p && *p == *q)
  9e:	00054783          	lbu	a5,0(a0)
  a2:	cb91                	beqz	a5,b6 <strcmp+0x1e>
  a4:	0005c703          	lbu	a4,0(a1)
  a8:	00f71763          	bne	a4,a5,b6 <strcmp+0x1e>
    p++, q++;
  ac:	0505                	addi	a0,a0,1
  ae:	0585                	addi	a1,a1,1
  while(*p && *p == *q)
  b0:	00054783          	lbu	a5,0(a0)
  b4:	fbe5                	bnez	a5,a4 <strcmp+0xc>
  return (uchar)*p - (uchar)*q;
  b6:	0005c503          	lbu	a0,0(a1)
}
  ba:	40a7853b          	subw	a0,a5,a0
  be:	6422                	ld	s0,8(sp)
  c0:	0141                	addi	sp,sp,16
  c2:	8082                	ret

00000000000000c4 <strlen>:

uint
strlen(const char *s)
{
  c4:	1141                	addi	sp,sp,-16
  c6:	e422                	sd	s0,8(sp)
  c8:	0800                	addi	s0,sp,16
  int n;

  for(n = 0; s[n]; n++)
  ca:	00054783          	lbu	a5,0(a0)
  ce:	cf91                	beqz	a5,ea <strlen+0x26>
  d0:	0505                	addi	a0,a0,1
  d2:	87aa                	mv	a5,a0
  d4:	86be                	mv	a3,a5
  d6:	0785                	addi	a5,a5,1
  d8:	fff7c703          	lbu	a4,-1(a5)
  dc:	ff65                	bnez	a4,d4 <strlen+0x10>
  de:	40a6853b          	subw	a0,a3,a0
  e2:	2505                	addiw	a0,a0,1
    ;
  return n;
}
  e4:	6422                	ld	s0,8(sp)
  e6:	0141                	addi	sp,sp,16
  e8:	8082                	ret
  for(n = 0; s[n]; n++)
  ea:	4501                	li	a0,0
  ec:	bfe5                	j	e4 <strlen+0x20>

00000000000000ee <memset>:

void*
memset(void *dst, int c, uint n)
{
  ee:	1141                	addi	sp,sp,-16
  f0:	e422                	sd	s0,8(sp)
  f2:	0800                	addi	s0,sp,16
  char *cdst = (char *) dst;
  int i;
  for(i = 0; i < n; i++){
  f4:	ca19                	beqz	a2,10a <memset+0x1c>
  f6:	87aa                	mv	a5,a0
  f8:	1602                	slli	a2,a2,0x20
  fa:	9201                	srli	a2,a2,0x20
  fc:	00a60733          	add	a4,a2,a0
    cdst[i] = c;
 100:	00b78023          	sb	a1,0(a5)
  for(i = 0; i < n; i++){
 104:	0785                	addi	a5,a5,1
 106:	fee79de3          	bne	a5,a4,100 <memset+0x12>
  }
  return dst;
}
 10a:	6422                	ld	s0,8(sp)
 10c:	0141                	addi	sp,sp,16
 10e:	8082                	ret

0000000000000110 <strchr>:

char*
strchr(const char *s, char c)
{
 110:	1141                	addi	sp,sp,-16
 112:	e422                	sd	s0,8(sp)
 114:	0800                	addi	s0,sp,16
  for(; *s; s++)
 116:	00054783          	lbu	a5,0(a0)
 11a:	cb99                	beqz	a5,130 <strchr+0x20>
    if(*s == c)
 11c:	00f58763          	beq	a1,a5,12a <strchr+0x1a>
  for(; *s; s++)
 120:	0505                	addi	a0,a0,1
 122:	00054783          	lbu	a5,0(a0)
 126:	fbfd                	bnez	a5,11c <strchr+0xc>
      return (char*)s;
  return 0;
 128:	4501                	li	a0,0
}
 12a:	6422                	ld	s0,8(sp)
 12c:	0141                	addi	sp,sp,16
 12e:	8082                	ret
  return 0;
 130:	4501                	li	a0,0
 132:	bfe5                	j	12a <strchr+0x1a>

0000000000000134 <gets>:

char*
gets(char *buf, int max)
{
 134:	711d                	addi	sp,sp,-96
 136:	ec86                	sd	ra,88(sp)
 138:	e8a2                	sd	s0,80(sp)
 13a:	e4a6                	sd	s1,72(sp)
 13c:	e0ca                	sd	s2,64(sp)
 13e:	fc4e                	sd	s3,56(sp)
 140:	f852                	sd	s4,48(sp)
 142:	f456                	sd	s5,40(sp)
 144:	f05a                	sd	s6,32(sp)
 146:	ec5e                	sd	s7,24(sp)
 148:	1080                	addi	s0,sp,96
 14a:	8baa                	mv	s7,a0
 14c:	8a2e                	mv	s4,a1
  int i, cc;
  char c;

  for(i=0; i+1 < max; ){
 14e:	892a                	mv	s2,a0
 150:	4481                	li	s1,0
    cc = read(0, &c, 1);
    if(cc < 1)
      break;
    buf[i++] = c;
    if(c == '\n' || c == '\r')
 152:	4aa9                	li	s5,10
 154:	4b35                	li	s6,13
  for(i=0; i+1 < max; ){
 156:	89a6                	mv	s3,s1
 158:	2485                	addiw	s1,s1,1
 15a:	0344d863          	bge	s1,s4,18a <gets+0x56>
    cc = read(0, &c, 1);
 15e:	4605                	li	a2,1
 160:	faf40593          	addi	a1,s0,-81
 164:	4501                	li	a0,0
 166:	00000097          	auipc	ra,0x0
 16a:	19a080e7          	jalr	410(ra) # 300 <read>
    if(cc < 1)
 16e:	00a05e63          	blez	a0,18a <gets+0x56>
    buf[i++] = c;
 172:	faf44783          	lbu	a5,-81(s0)
 176:	00f90023          	sb	a5,0(s2)
    if(c == '\n' || c == '\r')
 17a:	01578763          	beq	a5,s5,188 <gets+0x54>
 17e:	0905                	addi	s2,s2,1
 180:	fd679be3          	bne	a5,s6,156 <gets+0x22>
    buf[i++] = c;
 184:	89a6                	mv	s3,s1
 186:	a011                	j	18a <gets+0x56>
 188:	89a6                	mv	s3,s1
      break;
  }
  buf[i] = '\0';
 18a:	99de                	add	s3,s3,s7
 18c:	00098023          	sb	zero,0(s3)
  return buf;
}
 190:	855e                	mv	a0,s7
 192:	60e6                	ld	ra,88(sp)
 194:	6446                	ld	s0,80(sp)
 196:	64a6                	ld	s1,72(sp)
 198:	6906                	ld	s2,64(sp)
 19a:	79e2                	ld	s3,56(sp)
 19c:	7a42                	ld	s4,48(sp)
 19e:	7aa2                	ld	s5,40(sp)
 1a0:	7b02                	ld	s6,32(sp)
 1a2:	6be2                	ld	s7,24(sp)
 1a4:	6125                	addi	sp,sp,96
 1a6:	8082                	ret

00000000000001a8 <stat>:

int
stat(const char *n, struct stat *st)
{
 1a8:	1101                	addi	sp,sp,-32
 1aa:	ec06                	sd	ra,24(sp)
 1ac:	e822                	sd	s0,16(sp)
 1ae:	e04a                	sd	s2,0(sp)
 1b0:	1000                	addi	s0,sp,32
 1b2:	892e                	mv	s2,a1
  int fd;
  int r;

  fd = open(n, O_RDONLY);
 1b4:	4581                	li	a1,0
 1b6:	00000097          	auipc	ra,0x0
 1ba:	172080e7          	jalr	370(ra) # 328 <open>
  if(fd < 0)
 1be:	02054663          	bltz	a0,1ea <stat+0x42>
 1c2:	e426                	sd	s1,8(sp)
 1c4:	84aa                	mv	s1,a0
    return -1;
  r = fstat(fd, st);
 1c6:	85ca                	mv	a1,s2
 1c8:	00000097          	auipc	ra,0x0
 1cc:	178080e7          	jalr	376(ra) # 340 <fstat>
 1d0:	892a                	mv	s2,a0
  close(fd);
 1d2:	8526                	mv	a0,s1
 1d4:	00000097          	auipc	ra,0x0
 1d8:	13c080e7          	jalr	316(ra) # 310 <close>
  return r;
 1dc:	64a2                	ld	s1,8(sp)
}
 1de:	854a                	mv	a0,s2
 1e0:	60e2                	ld	ra,24(sp)
 1e2:	6442                	ld	s0,16(sp)
 1e4:	6902                	ld	s2,0(sp)
 1e6:	6105                	addi	sp,sp,32
 1e8:	8082                	ret
    return -1;
 1ea:	597d                	li	s2,-1
 1ec:	bfcd                	j	1de <stat+0x36>

00000000000001ee <atoi>:

int
atoi(const char *s)
{
 1ee:	1141                	addi	sp,sp,-16
 1f0:	e422                	sd	s0,8(sp)
 1f2:	0800                	addi	s0,sp,16
  int n;

  n = 0;
  while('0' <= *s && *s <= '9')
 1f4:	00054683          	lbu	a3,0(a0)
 1f8:	fd06879b          	addiw	a5,a3,-48
 1fc:	0ff7f793          	zext.b	a5,a5
 200:	4625                	li	a2,9
 202:	02f66863          	bltu	a2,a5,232 <atoi+0x44>
 206:	872a                	mv	a4,a0
  n = 0;
 208:	4501                	li	a0,0
    n = n*10 + *s++ - '0';
 20a:	0705                	addi	a4,a4,1
 20c:	0025179b          	slliw	a5,a0,0x2
 210:	9fa9                	addw	a5,a5,a0
 212:	0017979b          	slliw	a5,a5,0x1
 216:	9fb5                	addw	a5,a5,a3
 218:	fd07851b          	addiw	a0,a5,-48
  while('0' <= *s && *s <= '9')
 21c:	00074683          	lbu	a3,0(a4)
 220:	fd06879b          	addiw	a5,a3,-48
 224:	0ff7f793          	zext.b	a5,a5
 228:	fef671e3          	bgeu	a2,a5,20a <atoi+0x1c>
  return n;
}
 22c:	6422                	ld	s0,8(sp)
 22e:	0141                	addi	sp,sp,16
 230:	8082                	ret
  n = 0;
 232:	4501                	li	a0,0
 234:	bfe5                	j	22c <atoi+0x3e>

0000000000000236 <memmove>:

void*
memmove(void *vdst, const void *vsrc, int n)
{
 236:	1141                	addi	sp,sp,-16
 238:	e422                	sd	s0,8(sp)
 23a:	0800                	addi	s0,sp,16
  char *dst;
  const char *src;

  dst = vdst;
  src = vsrc;
  if (src > dst) {
 23c:	02b57463          	bgeu	a0,a1,264 <memmove+0x2e>
    while(n-- > 0)
 240:	00c05f63          	blez	a2,25e <memmove+0x28>
 244:	1602                	slli	a2,a2,0x20
 246:	9201                	srli	a2,a2,0x20
 248:	00c507b3          	add	a5,a0,a2
  dst = vdst;
 24c:	872a                	mv	a4,a0
      *dst++ = *src++;
 24e:	0585                	addi	a1,a1,1
 250:	0705                	addi	a4,a4,1
 252:	fff5c683          	lbu	a3,-1(a1)
 256:	fed70fa3          	sb	a3,-1(a4)
    while(n-- > 0)
 25a:	fef71ae3          	bne	a4,a5,24e <memmove+0x18>
    src += n;
    while(n-- > 0)
      *--dst = *--src;
  }
  return vdst;
}
 25e:	6422                	ld	s0,8(sp)
 260:	0141                	addi	sp,sp,16
 262:	8082                	ret
    dst += n;
 264:	00c50733          	add	a4,a0,a2
    src += n;
 268:	95b2                	add	a1,a1,a2
    while(n-- > 0)
 26a:	fec05ae3          	blez	a2,25e <memmove+0x28>
 26e:	fff6079b          	addiw	a5,a2,-1
 272:	1782                	slli	a5,a5,0x20
 274:	9381                	srli	a5,a5,0x20
 276:	fff7c793          	not	a5,a5
 27a:	97ba                	add	a5,a5,a4
      *--dst = *--src;
 27c:	15fd                	addi	a1,a1,-1
 27e:	177d                	addi	a4,a4,-1
 280:	0005c683          	lbu	a3,0(a1)
 284:	00d70023          	sb	a3,0(a4)
    while(n-- > 0)
 288:	fee79ae3          	bne	a5,a4,27c <memmove+0x46>
 28c:	bfc9                	j	25e <memmove+0x28>

000000000000028e <memcmp>:

int
memcmp(const void *s1, const void *s2, uint n)
{
 28e:	1141                	addi	sp,sp,-16
 290:	e422                	sd	s0,8(sp)
 292:	0800                	addi	s0,sp,16
  const char *p1 = s1, *p2 = s2;
  while (n-- > 0) {
 294:	ca05                	beqz	a2,2c4 <memcmp+0x36>
 296:	fff6069b          	addiw	a3,a2,-1
 29a:	1682                	slli	a3,a3,0x20
 29c:	9281                	srli	a3,a3,0x20
 29e:	0685                	addi	a3,a3,1
 2a0:	96aa                	add	a3,a3,a0
    if (*p1 != *p2) {
 2a2:	00054783          	lbu	a5,0(a0)
 2a6:	0005c703          	lbu	a4,0(a1)
 2aa:	00e79863          	bne	a5,a4,2ba <memcmp+0x2c>
      return *p1 - *p2;
    }
    p1++;
 2ae:	0505                	addi	a0,a0,1
    p2++;
 2b0:	0585                	addi	a1,a1,1
  while (n-- > 0) {
 2b2:	fed518e3          	bne	a0,a3,2a2 <memcmp+0x14>
  }
  return 0;
 2b6:	4501                	li	a0,0
 2b8:	a019                	j	2be <memcmp+0x30>
      return *p1 - *p2;
 2ba:	40e7853b          	subw	a0,a5,a4
}
 2be:	6422                	ld	s0,8(sp)
 2c0:	0141                	addi	sp,sp,16
 2c2:	8082                	ret
  return 0;
 2c4:	4501                	li	a0,0
 2c6:	bfe5                	j	2be <memcmp+0x30>

00000000000002c8 <memcpy>:

void *
memcpy(void *dst, const void *src, uint n)
{
 2c8:	1141                	addi	sp,sp,-16
 2ca:	e406                	sd	ra,8(sp)
 2cc:	e022                	sd	s0,0(sp)
 2ce:	0800                	addi	s0,sp,16
  return memmove(dst, src, n);
 2d0:	00000097          	auipc	ra,0x0
 2d4:	f66080e7          	jalr	-154(ra) # 236 <memmove>
}
 2d8:	60a2                	ld	ra,8(sp)
 2da:	6402                	ld	s0,0(sp)
 2dc:	0141                	addi	sp,sp,16
 2de:	8082                	ret

00000000000002e0 <fork>:
# generated by usys.pl - do not edit
#include "kernel/syscall.h"
.global fork
fork:
 li a7, SYS_fork
 2e0:	4885                	li	a7,1
 ecall
 2e2:	00000073          	ecall
 ret
 2e6:	8082                	ret

00000000000002e8 <exit>:
.global exit
exit:
 li a7, SYS_exit
 2e8:	4889                	li	a7,2
 ecall
 2ea:	00000073          	ecall
 ret
 2ee:	8082                	ret

00000000000002f0 <wait>:
.global wait
wait:
 li a7, SYS_wait
 2f0:	488d                	li	a7,3
 ecall
 2f2:	00000073          	ecall
 ret
 2f6:	8082                	ret

00000000000002f8 <pipe>:
.global pipe
pipe:
 li a7, SYS_pipe
 2f8:	4891                	li	a7,4
 ecall
 2fa:	00000073          	ecall
 ret
 2fe:	8082                	ret

0000000000000300 <read>:
.global read
read:
 li a7, SYS_read
 300:	4895                	li	a7,5
 ecall
 302:	00000073          	ecall
 ret
 306:	8082                	ret

0000000000000308 <write>:
.global write
write:
 li a7, SYS_write
 308:	48c1                	li	a7,16
 ecall
 30a:	00000073          	ecall
 ret
 30e:	8082                	ret

0000000000000310 <close>:
.global close
close:
 li a7, SYS_close
 310:	48d5                	li	a7,21
 ecall
 312:	00000073          	ecall
 ret
 316:	8082                	ret

0000000000000318 <kill>:
.global kill
kill:
 li a7, SYS_kill
 318:	4899                	li	a7,6
 ecall
 31a:	00000073          	ecall
 ret
 31e:	8082                	ret

0000000000000320 <exec>:
.global exec
exec:
 li a7, SYS_exec
 320:	489d                	li	a7,7
 ecall
 322:	00000073          	ecall
 ret
 326:	8082                	ret

0000000000000328 <open>:
.global open
open:
 li a7, SYS_open
 328:	48bd                	li	a7,15
 ecall
 32a:	00000073          	ecall
 ret
 32e:	8082                	ret

0000000000000330 <mknod>:
.global mknod
mknod:
 li a7, SYS_mknod
 330:	48c5                	li	a7,17
 ecall
 332:	00000073          	ecall
 ret
 336:	8082                	ret

0000000000000338 <unlink>:
.global unlink
unlink:
 li a7, SYS_unlink
 338:	48c9                	li	a7,18
 ecall
 33a:	00000073          	ecall
 ret
 33e:	8082                	ret

0000000000000340 <fstat>:
.global fstat
fstat:
 li a7, SYS_fstat
 340:	48a1                	li	a7,8
 ecall
 342:	00000073          	ecall
 ret
 346:	8082                	ret

0000000000000348 <link>:
.global link
link:
 li a7, SYS_link
 348:	48cd                	li	a7,19
 ecall
 34a:	00000073          	ecall
 ret
 34e:	8082                	ret

0000000000000350 <mkdir>:
.global mkdir
mkdir:
 li a7, SYS_mkdir
 350:	48d1                	li	a7,20
 ecall
 352:	00000073          	ecall
 ret
 356:	8082                	ret

0000000000000358 <chdir>:
.global chdir
chdir:
 li a7, SYS_chdir
 358:	48a5                	li	a7,9
 ecall
 35a:	00000073          	ecall
 ret
 35e:	8082                	ret

0000000000000360 <dup>:
.global dup
dup:
 li a7, SYS_dup
 360:	48a9                	li	a7,10
 ecall
 362:	00000073          	ecall
 ret
 366:	8082                	ret

0000000000000368 <getpid>:
.global getpid
getpid:
 li a7, SYS_getpid
 368:	48ad                	li	a7,11
 ecall
 36a:	00000073          	ecall
 ret
 36e:	8082                	ret

0000000000000370 <sbrk>:
.global sbrk
sbrk:
 li a7, SYS_sbrk
 370:	48b1                	li	a7,12
 ecall
 372:	00000073          	ecall
 ret
 376:	8082                	ret

0000000000000378 <sleep>:
.global sleep
sleep:
 li a7, SYS_sleep
 378:	48b5                	li	a7,13
 ecall
 37a:	00000073          	ecall
 ret
 37e:	8082                	ret

0000000000000380 <uptime>:
.global uptime
uptime:
 li a7, SYS_uptime
 380:	48b9                	li	a7,14
 ecall
 382:	00000073          	ecall
 ret
 386:	8082                	ret

0000000000000388 <waitx>:
.global waitx
waitx:
 li a7, SYS_waitx
 388:	48d9                	li	a7,22
 ecall
 38a:	00000073          	ecall
 ret
 38e:	8082                	ret

0000000000000390 <putc>:

static char digits[] = "0123456789ABCDEF";

static void
putc(int fd, char c)
{
 390:	1101                	addi	sp,sp,-32
 392:	ec06                	sd	ra,24(sp)
 394:	e822                	sd	s0,16(sp)
 396:	1000                	addi	s0,sp,32
 398:	feb407a3          	sb	a1,-17(s0)
  write(fd, &c, 1);
 39c:	4605                	li	a2,1
 39e:	fef40593          	addi	a1,s0,-17
 3a2:	00000097          	auipc	ra,0x0
 3a6:	f66080e7          	jalr	-154(ra) # 308 <write>
}
 3aa:	60e2                	ld	ra,24(sp)
 3ac:	6442                	ld	s0,16(sp)
 3ae:	6105                	addi	sp,sp,32
 3b0:	8082                	ret

00000000000003b2 <printint>:

static void
printint(int fd, int xx, int base, int sgn)
{
 3b2:	7139                	addi	sp,sp,-64
 3b4:	fc06                	sd	ra,56(sp)
 3b6:	f822                	sd	s0,48(sp)
 3b8:	f426                	sd	s1,40(sp)
 3ba:	0080                	addi	s0,sp,64
 3bc:	84aa                	mv	s1,a0
  char buf[16];
  int i, neg;
  uint x;

  neg = 0;
  if(sgn && xx < 0){
 3be:	c299                	beqz	a3,3c4 <printint+0x12>
 3c0:	0805cb63          	bltz	a1,456 <printint+0xa4>
    neg = 1;
    x = -xx;
  } else {
    x = xx;
 3c4:	2581                	sext.w	a1,a1
  neg = 0;
 3c6:	4881                	li	a7,0
 3c8:	fc040693          	addi	a3,s0,-64
  }

  i = 0;
 3cc:	4701                	li	a4,0
  do{
    buf[i++] = digits[x % base];
 3ce:	2601                	sext.w	a2,a2
 3d0:	00000517          	auipc	a0,0x0
 3d4:	4d050513          	addi	a0,a0,1232 # 8a0 <digits>
 3d8:	883a                	mv	a6,a4
 3da:	2705                	addiw	a4,a4,1
 3dc:	02c5f7bb          	remuw	a5,a1,a2
 3e0:	1782                	slli	a5,a5,0x20
 3e2:	9381                	srli	a5,a5,0x20
 3e4:	97aa                	add	a5,a5,a0
 3e6:	0007c783          	lbu	a5,0(a5)
 3ea:	00f68023          	sb	a5,0(a3)
  }while((x /= base) != 0);
 3ee:	0005879b          	sext.w	a5,a1
 3f2:	02c5d5bb          	divuw	a1,a1,a2
 3f6:	0685                	addi	a3,a3,1
 3f8:	fec7f0e3          	bgeu	a5,a2,3d8 <printint+0x26>
  if(neg)
 3fc:	00088c63          	beqz	a7,414 <printint+0x62>
    buf[i++] = '-';
 400:	fd070793          	addi	a5,a4,-48
 404:	00878733          	add	a4,a5,s0
 408:	02d00793          	li	a5,45
 40c:	fef70823          	sb	a5,-16(a4)
 410:	0028071b          	addiw	a4,a6,2

  while(--i >= 0)
 414:	02e05c63          	blez	a4,44c <printint+0x9a>
 418:	f04a                	sd	s2,32(sp)
 41a:	ec4e                	sd	s3,24(sp)
 41c:	fc040793          	addi	a5,s0,-64
 420:	00e78933          	add	s2,a5,a4
 424:	fff78993          	addi	s3,a5,-1
 428:	99ba                	add	s3,s3,a4
 42a:	377d                	addiw	a4,a4,-1
 42c:	1702                	slli	a4,a4,0x20
 42e:	9301                	srli	a4,a4,0x20
 430:	40e989b3          	sub	s3,s3,a4
    putc(fd, buf[i]);
 434:	fff94583          	lbu	a1,-1(s2)
 438:	8526                	mv	a0,s1
 43a:	00000097          	auipc	ra,0x0
 43e:	f56080e7          	jalr	-170(ra) # 390 <putc>
  while(--i >= 0)
 442:	197d                	addi	s2,s2,-1
 444:	ff3918e3          	bne	s2,s3,434 <printint+0x82>
 448:	7902                	ld	s2,32(sp)
 44a:	69e2                	ld	s3,24(sp)
}
 44c:	70e2                	ld	ra,56(sp)
 44e:	7442                	ld	s0,48(sp)
 450:	74a2                	ld	s1,40(sp)
 452:	6121                	addi	sp,sp,64
 454:	8082                	ret
    x = -xx;
 456:	40b005bb          	negw	a1,a1
    neg = 1;
 45a:	4885                	li	a7,1
    x = -xx;
 45c:	b7b5                	j	3c8 <printint+0x16>

000000000000045e <vprintf>:
}

// Print to the given fd. Only understands %d, %x, %p, %s.
void
vprintf(int fd, const char *fmt, va_list ap)
{
 45e:	715d                	addi	sp,sp,-80
 460:	e486                	sd	ra,72(sp)
 462:	e0a2                	sd	s0,64(sp)
 464:	f84a                	sd	s2,48(sp)
 466:	0880                	addi	s0,sp,80
  char *s;
  int c, i, state;

  state = 0;
  for(i = 0; fmt[i]; i++){
 468:	0005c903          	lbu	s2,0(a1)
 46c:	1a090a63          	beqz	s2,620 <vprintf+0x1c2>
 470:	fc26                	sd	s1,56(sp)
 472:	f44e                	sd	s3,40(sp)
 474:	f052                	sd	s4,32(sp)
 476:	ec56                	sd	s5,24(sp)
 478:	e85a                	sd	s6,16(sp)
 47a:	e45e                	sd	s7,8(sp)
 47c:	8aaa                	mv	s5,a0
 47e:	8bb2                	mv	s7,a2
 480:	00158493          	addi	s1,a1,1
  state = 0;
 484:	4981                	li	s3,0
      if(c == '%'){
        state = '%';
      } else {
        putc(fd, c);
      }
    } else if(state == '%'){
 486:	02500a13          	li	s4,37
 48a:	4b55                	li	s6,21
 48c:	a839                	j	4aa <vprintf+0x4c>
        putc(fd, c);
 48e:	85ca                	mv	a1,s2
 490:	8556                	mv	a0,s5
 492:	00000097          	auipc	ra,0x0
 496:	efe080e7          	jalr	-258(ra) # 390 <putc>
 49a:	a019                	j	4a0 <vprintf+0x42>
    } else if(state == '%'){
 49c:	01498d63          	beq	s3,s4,4b6 <vprintf+0x58>
  for(i = 0; fmt[i]; i++){
 4a0:	0485                	addi	s1,s1,1
 4a2:	fff4c903          	lbu	s2,-1(s1)
 4a6:	16090763          	beqz	s2,614 <vprintf+0x1b6>
    if(state == 0){
 4aa:	fe0999e3          	bnez	s3,49c <vprintf+0x3e>
      if(c == '%'){
 4ae:	ff4910e3          	bne	s2,s4,48e <vprintf+0x30>
        state = '%';
 4b2:	89d2                	mv	s3,s4
 4b4:	b7f5                	j	4a0 <vprintf+0x42>
      if(c == 'd'){
 4b6:	13490463          	beq	s2,s4,5de <vprintf+0x180>
 4ba:	f9d9079b          	addiw	a5,s2,-99
 4be:	0ff7f793          	zext.b	a5,a5
 4c2:	12fb6763          	bltu	s6,a5,5f0 <vprintf+0x192>
 4c6:	f9d9079b          	addiw	a5,s2,-99
 4ca:	0ff7f713          	zext.b	a4,a5
 4ce:	12eb6163          	bltu	s6,a4,5f0 <vprintf+0x192>
 4d2:	00271793          	slli	a5,a4,0x2
 4d6:	00000717          	auipc	a4,0x0
 4da:	37270713          	addi	a4,a4,882 # 848 <malloc+0x138>
 4de:	97ba                	add	a5,a5,a4
 4e0:	439c                	lw	a5,0(a5)
 4e2:	97ba                	add	a5,a5,a4
 4e4:	8782                	jr	a5
        printint(fd, va_arg(ap, int), 10, 1);
 4e6:	008b8913          	addi	s2,s7,8
 4ea:	4685                	li	a3,1
 4ec:	4629                	li	a2,10
 4ee:	000ba583          	lw	a1,0(s7)
 4f2:	8556                	mv	a0,s5
 4f4:	00000097          	auipc	ra,0x0
 4f8:	ebe080e7          	jalr	-322(ra) # 3b2 <printint>
 4fc:	8bca                	mv	s7,s2
      } else {
        // Unknown % sequence.  Print it to draw attention.
        putc(fd, '%');
        putc(fd, c);
      }
      state = 0;
 4fe:	4981                	li	s3,0
 500:	b745                	j	4a0 <vprintf+0x42>
        printint(fd, va_arg(ap, uint64), 10, 0);
 502:	008b8913          	addi	s2,s7,8
 506:	4681                	li	a3,0
 508:	4629                	li	a2,10
 50a:	000ba583          	lw	a1,0(s7)
 50e:	8556                	mv	a0,s5
 510:	00000097          	auipc	ra,0x0
 514:	ea2080e7          	jalr	-350(ra) # 3b2 <printint>
 518:	8bca                	mv	s7,s2
      state = 0;
 51a:	4981                	li	s3,0
 51c:	b751                	j	4a0 <vprintf+0x42>
        printint(fd, va_arg(ap, int), 16, 0);
 51e:	008b8913          	addi	s2,s7,8
 522:	4681                	li	a3,0
 524:	4641                	li	a2,16
 526:	000ba583          	lw	a1,0(s7)
 52a:	8556                	mv	a0,s5
 52c:	00000097          	auipc	ra,0x0
 530:	e86080e7          	jalr	-378(ra) # 3b2 <printint>
 534:	8bca                	mv	s7,s2
      state = 0;
 536:	4981                	li	s3,0
 538:	b7a5                	j	4a0 <vprintf+0x42>
 53a:	e062                	sd	s8,0(sp)
        printptr(fd, va_arg(ap, uint64));
 53c:	008b8c13          	addi	s8,s7,8
 540:	000bb983          	ld	s3,0(s7)
  putc(fd, '0');
 544:	03000593          	li	a1,48
 548:	8556                	mv	a0,s5
 54a:	00000097          	auipc	ra,0x0
 54e:	e46080e7          	jalr	-442(ra) # 390 <putc>
  putc(fd, 'x');
 552:	07800593          	li	a1,120
 556:	8556                	mv	a0,s5
 558:	00000097          	auipc	ra,0x0
 55c:	e38080e7          	jalr	-456(ra) # 390 <putc>
 560:	4941                	li	s2,16
    putc(fd, digits[x >> (sizeof(uint64) * 8 - 4)]);
 562:	00000b97          	auipc	s7,0x0
 566:	33eb8b93          	addi	s7,s7,830 # 8a0 <digits>
 56a:	03c9d793          	srli	a5,s3,0x3c
 56e:	97de                	add	a5,a5,s7
 570:	0007c583          	lbu	a1,0(a5)
 574:	8556                	mv	a0,s5
 576:	00000097          	auipc	ra,0x0
 57a:	e1a080e7          	jalr	-486(ra) # 390 <putc>
  for (i = 0; i < (sizeof(uint64) * 2); i++, x <<= 4)
 57e:	0992                	slli	s3,s3,0x4
 580:	397d                	addiw	s2,s2,-1
 582:	fe0914e3          	bnez	s2,56a <vprintf+0x10c>
        printptr(fd, va_arg(ap, uint64));
 586:	8be2                	mv	s7,s8
      state = 0;
 588:	4981                	li	s3,0
 58a:	6c02                	ld	s8,0(sp)
 58c:	bf11                	j	4a0 <vprintf+0x42>
        s = va_arg(ap, char*);
 58e:	008b8993          	addi	s3,s7,8
 592:	000bb903          	ld	s2,0(s7)
        if(s == 0)
 596:	02090163          	beqz	s2,5b8 <vprintf+0x15a>
        while(*s != 0){
 59a:	00094583          	lbu	a1,0(s2)
 59e:	c9a5                	beqz	a1,60e <vprintf+0x1b0>
          putc(fd, *s);
 5a0:	8556                	mv	a0,s5
 5a2:	00000097          	auipc	ra,0x0
 5a6:	dee080e7          	jalr	-530(ra) # 390 <putc>
          s++;
 5aa:	0905                	addi	s2,s2,1
        while(*s != 0){
 5ac:	00094583          	lbu	a1,0(s2)
 5b0:	f9e5                	bnez	a1,5a0 <vprintf+0x142>
        s = va_arg(ap, char*);
 5b2:	8bce                	mv	s7,s3
      state = 0;
 5b4:	4981                	li	s3,0
 5b6:	b5ed                	j	4a0 <vprintf+0x42>
          s = "(null)";
 5b8:	00000917          	auipc	s2,0x0
 5bc:	28890913          	addi	s2,s2,648 # 840 <malloc+0x130>
        while(*s != 0){
 5c0:	02800593          	li	a1,40
 5c4:	bff1                	j	5a0 <vprintf+0x142>
        putc(fd, va_arg(ap, uint));
 5c6:	008b8913          	addi	s2,s7,8
 5ca:	000bc583          	lbu	a1,0(s7)
 5ce:	8556                	mv	a0,s5
 5d0:	00000097          	auipc	ra,0x0
 5d4:	dc0080e7          	jalr	-576(ra) # 390 <putc>
 5d8:	8bca                	mv	s7,s2
      state = 0;
 5da:	4981                	li	s3,0
 5dc:	b5d1                	j	4a0 <vprintf+0x42>
        putc(fd, c);
 5de:	02500593          	li	a1,37
 5e2:	8556                	mv	a0,s5
 5e4:	00000097          	auipc	ra,0x0
 5e8:	dac080e7          	jalr	-596(ra) # 390 <putc>
      state = 0;
 5ec:	4981                	li	s3,0
 5ee:	bd4d                	j	4a0 <vprintf+0x42>
        putc(fd, '%');
 5f0:	02500593          	li	a1,37
 5f4:	8556                	mv	a0,s5
 5f6:	00000097          	auipc	ra,0x0
 5fa:	d9a080e7          	jalr	-614(ra) # 390 <putc>
        putc(fd, c);
 5fe:	85ca                	mv	a1,s2
 600:	8556                	mv	a0,s5
 602:	00000097          	auipc	ra,0x0
 606:	d8e080e7          	jalr	-626(ra) # 390 <putc>
      state = 0;
 60a:	4981                	li	s3,0
 60c:	bd51                	j	4a0 <vprintf+0x42>
        s = va_arg(ap, char*);
 60e:	8bce                	mv	s7,s3
      state = 0;
 610:	4981                	li	s3,0
 612:	b579                	j	4a0 <vprintf+0x42>
 614:	74e2                	ld	s1,56(sp)
 616:	79a2                	ld	s3,40(sp)
 618:	7a02                	ld	s4,32(sp)
 61a:	6ae2                	ld	s5,24(sp)
 61c:	6b42                	ld	s6,16(sp)
 61e:	6ba2                	ld	s7,8(sp)
    }
  }
}
 620:	60a6                	ld	ra,72(sp)
 622:	6406                	ld	s0,64(sp)
 624:	7942                	ld	s2,48(sp)
 626:	6161                	addi	sp,sp,80
 628:	8082                	ret

000000000000062a <fprintf>:

void
fprintf(int fd, const char *fmt, ...)
{
 62a:	715d                	addi	sp,sp,-80
 62c:	ec06                	sd	ra,24(sp)
 62e:	e822                	sd	s0,16(sp)
 630:	1000                	addi	s0,sp,32
 632:	e010                	sd	a2,0(s0)
 634:	e414                	sd	a3,8(s0)
 636:	e818                	sd	a4,16(s0)
 638:	ec1c                	sd	a5,24(s0)
 63a:	03043023          	sd	a6,32(s0)
 63e:	03143423          	sd	a7,40(s0)
  va_list ap;

  va_start(ap, fmt);
 642:	fe843423          	sd	s0,-24(s0)
  vprintf(fd, fmt, ap);
 646:	8622                	mv	a2,s0
 648:	00000097          	auipc	ra,0x0
 64c:	e16080e7          	jalr	-490(ra) # 45e <vprintf>
}
 650:	60e2                	ld	ra,24(sp)
 652:	6442                	ld	s0,16(sp)
 654:	6161                	addi	sp,sp,80
 656:	8082                	ret

0000000000000658 <printf>:

void
printf(const char *fmt, ...)
{
 658:	711d                	addi	sp,sp,-96
 65a:	ec06                	sd	ra,24(sp)
 65c:	e822                	sd	s0,16(sp)
 65e:	1000                	addi	s0,sp,32
 660:	e40c                	sd	a1,8(s0)
 662:	e810                	sd	a2,16(s0)
 664:	ec14                	sd	a3,24(s0)
 666:	f018                	sd	a4,32(s0)
 668:	f41c                	sd	a5,40(s0)
 66a:	03043823          	sd	a6,48(s0)
 66e:	03143c23          	sd	a7,56(s0)
  va_list ap;

  va_start(ap, fmt);
 672:	00840613          	addi	a2,s0,8
 676:	fec43423          	sd	a2,-24(s0)
  vprintf(1, fmt, ap);
 67a:	85aa                	mv	a1,a0
 67c:	4505                	li	a0,1
 67e:	00000097          	auipc	ra,0x0
 682:	de0080e7          	jalr	-544(ra) # 45e <vprintf>
}
 686:	60e2                	ld	ra,24(sp)
 688:	6442                	ld	s0,16(sp)
 68a:	6125                	addi	sp,sp,96
 68c:	8082                	ret

000000000000068e <free>:
static Header base;
static Header *freep;

void
free(void *ap)
{
 68e:	1141                	addi	sp,sp,-16
 690:	e422                	sd	s0,8(sp)
 692:	0800                	addi	s0,sp,16
  Header *bp, *p;

  bp = (Header*)ap - 1;
 694:	ff050693          	addi	a3,a0,-16
  for(p = freep; !(bp > p && bp < p->s.ptr); p = p->s.ptr)
 698:	00001797          	auipc	a5,0x1
 69c:	9687b783          	ld	a5,-1688(a5) # 1000 <freep>
 6a0:	a02d                	j	6ca <free+0x3c>
    if(p >= p->s.ptr && (bp > p || bp < p->s.ptr))
      break;
  if(bp + bp->s.size == p->s.ptr){
    bp->s.size += p->s.ptr->s.size;
 6a2:	4618                	lw	a4,8(a2)
 6a4:	9f2d                	addw	a4,a4,a1
 6a6:	fee52c23          	sw	a4,-8(a0)
    bp->s.ptr = p->s.ptr->s.ptr;
 6aa:	6398                	ld	a4,0(a5)
 6ac:	6310                	ld	a2,0(a4)
 6ae:	a83d                	j	6ec <free+0x5e>
  } else
    bp->s.ptr = p->s.ptr;
  if(p + p->s.size == bp){
    p->s.size += bp->s.size;
 6b0:	ff852703          	lw	a4,-8(a0)
 6b4:	9f31                	addw	a4,a4,a2
 6b6:	c798                	sw	a4,8(a5)
    p->s.ptr = bp->s.ptr;
 6b8:	ff053683          	ld	a3,-16(a0)
 6bc:	a091                	j	700 <free+0x72>
    if(p >= p->s.ptr && (bp > p || bp < p->s.ptr))
 6be:	6398                	ld	a4,0(a5)
 6c0:	00e7e463          	bltu	a5,a4,6c8 <free+0x3a>
 6c4:	00e6ea63          	bltu	a3,a4,6d8 <free+0x4a>
{
 6c8:	87ba                	mv	a5,a4
  for(p = freep; !(bp > p && bp < p->s.ptr); p = p->s.ptr)
 6ca:	fed7fae3          	bgeu	a5,a3,6be <free+0x30>
 6ce:	6398                	ld	a4,0(a5)
 6d0:	00e6e463          	bltu	a3,a4,6d8 <free+0x4a>
    if(p >= p->s.ptr && (bp > p || bp < p->s.ptr))
 6d4:	fee7eae3          	bltu	a5,a4,6c8 <free+0x3a>
  if(bp + bp->s.size == p->s.ptr){
 6d8:	ff852583          	lw	a1,-8(a0)
 6dc:	6390                	ld	a2,0(a5)
 6de:	02059813          	slli	a6,a1,0x20
 6e2:	01c85713          	srli	a4,a6,0x1c
 6e6:	9736                	add	a4,a4,a3
 6e8:	fae60de3          	beq	a2,a4,6a2 <free+0x14>
    bp->s.ptr = p->s.ptr->s.ptr;
 6ec:	fec53823          	sd	a2,-16(a0)
  if(p + p->s.size == bp){
 6f0:	4790                	lw	a2,8(a5)
 6f2:	02061593          	slli	a1,a2,0x20
 6f6:	01c5d713          	srli	a4,a1,0x1c
 6fa:	973e                	add	a4,a4,a5
 6fc:	fae68ae3          	beq	a3,a4,6b0 <free+0x22>
    p->s.ptr = bp->s.ptr;
 700:	e394                	sd	a3,0(a5)
  } else
    p->s.ptr = bp;
  freep = p;
 702:	00001717          	auipc	a4,0x1
 706:	8ef73f23          	sd	a5,-1794(a4) # 1000 <freep>
}
 70a:	6422                	ld	s0,8(sp)
 70c:	0141                	addi	sp,sp,16
 70e:	8082                	ret

0000000000000710 <malloc>:
  return freep;
}

void*
malloc(uint nbytes)
{
 710:	7139                	addi	sp,sp,-64
 712:	fc06                	sd	ra,56(sp)
 714:	f822                	sd	s0,48(sp)
 716:	f426                	sd	s1,40(sp)
 718:	ec4e                	sd	s3,24(sp)
 71a:	0080                	addi	s0,sp,64
  Header *p, *prevp;
  uint nunits;

  nunits = (nbytes + sizeof(Header) - 1)/sizeof(Header) + 1;
 71c:	02051493          	slli	s1,a0,0x20
 720:	9081                	srli	s1,s1,0x20
 722:	04bd                	addi	s1,s1,15
 724:	8091                	srli	s1,s1,0x4
 726:	0014899b          	addiw	s3,s1,1
 72a:	0485                	addi	s1,s1,1
  if((prevp = freep) == 0){
 72c:	00001517          	auipc	a0,0x1
 730:	8d453503          	ld	a0,-1836(a0) # 1000 <freep>
 734:	c915                	beqz	a0,768 <malloc+0x58>
    base.s.ptr = freep = prevp = &base;
    base.s.size = 0;
  }
  for(p = prevp->s.ptr; ; prevp = p, p = p->s.ptr){
 736:	611c                	ld	a5,0(a0)
    if(p->s.size >= nunits){
 738:	4798                	lw	a4,8(a5)
 73a:	08977e63          	bgeu	a4,s1,7d6 <malloc+0xc6>
 73e:	f04a                	sd	s2,32(sp)
 740:	e852                	sd	s4,16(sp)
 742:	e456                	sd	s5,8(sp)
 744:	e05a                	sd	s6,0(sp)
  if(nu < 4096)
 746:	8a4e                	mv	s4,s3
 748:	0009871b          	sext.w	a4,s3
 74c:	6685                	lui	a3,0x1
 74e:	00d77363          	bgeu	a4,a3,754 <malloc+0x44>
 752:	6a05                	lui	s4,0x1
 754:	000a0b1b          	sext.w	s6,s4
  p = sbrk(nu * sizeof(Header));
 758:	004a1a1b          	slliw	s4,s4,0x4
        p->s.size = nunits;
      }
      freep = prevp;
      return (void*)(p + 1);
    }
    if(p == freep)
 75c:	00001917          	auipc	s2,0x1
 760:	8a490913          	addi	s2,s2,-1884 # 1000 <freep>
  if(p == (char*)-1)
 764:	5afd                	li	s5,-1
 766:	a091                	j	7aa <malloc+0x9a>
 768:	f04a                	sd	s2,32(sp)
 76a:	e852                	sd	s4,16(sp)
 76c:	e456                	sd	s5,8(sp)
 76e:	e05a                	sd	s6,0(sp)
    base.s.ptr = freep = prevp = &base;
 770:	00001797          	auipc	a5,0x1
 774:	8a078793          	addi	a5,a5,-1888 # 1010 <base>
 778:	00001717          	auipc	a4,0x1
 77c:	88f73423          	sd	a5,-1912(a4) # 1000 <freep>
 780:	e39c                	sd	a5,0(a5)
    base.s.size = 0;
 782:	0007a423          	sw	zero,8(a5)
    if(p->s.size >= nunits){
 786:	b7c1                	j	746 <malloc+0x36>
        prevp->s.ptr = p->s.ptr;
 788:	6398                	ld	a4,0(a5)
 78a:	e118                	sd	a4,0(a0)
 78c:	a08d                	j	7ee <malloc+0xde>
  hp->s.size = nu;
 78e:	01652423          	sw	s6,8(a0)
  free((void*)(hp + 1));
 792:	0541                	addi	a0,a0,16
 794:	00000097          	auipc	ra,0x0
 798:	efa080e7          	jalr	-262(ra) # 68e <free>
  return freep;
 79c:	00093503          	ld	a0,0(s2)
      if((p = morecore(nunits)) == 0)
 7a0:	c13d                	beqz	a0,806 <malloc+0xf6>
  for(p = prevp->s.ptr; ; prevp = p, p = p->s.ptr){
 7a2:	611c                	ld	a5,0(a0)
    if(p->s.size >= nunits){
 7a4:	4798                	lw	a4,8(a5)
 7a6:	02977463          	bgeu	a4,s1,7ce <malloc+0xbe>
    if(p == freep)
 7aa:	00093703          	ld	a4,0(s2)
 7ae:	853e                	mv	a0,a5
 7b0:	fef719e3          	bne	a4,a5,7a2 <malloc+0x92>
  p = sbrk(nu * sizeof(Header));
 7b4:	8552                	mv	a0,s4
 7b6:	00000097          	auipc	ra,0x0
 7ba:	bba080e7          	jalr	-1094(ra) # 370 <sbrk>
  if(p == (char*)-1)
 7be:	fd5518e3          	bne	a0,s5,78e <malloc+0x7e>
        return 0;
 7c2:	4501                	li	a0,0
 7c4:	7902                	ld	s2,32(sp)
 7c6:	6a42                	ld	s4,16(sp)
 7c8:	6aa2                	ld	s5,8(sp)
 7ca:	6b02                	ld	s6,0(sp)
 7cc:	a03d                	j	7fa <malloc+0xea>
 7ce:	7902                	ld	s2,32(sp)
 7d0:	6a42                	ld	s4,16(sp)
 7d2:	6aa2                	ld	s5,8(sp)
 7d4:	6b02                	ld	s6,0(sp)
      if(p->s.size == nunits)
 7d6:	fae489e3          	beq	s1,a4,788 <malloc+0x78>
        p->s.size -= nunits;
 7da:	4137073b          	subw	a4,a4,s3
 7de:	c798                	sw	a4,8(a5)
        p += p->s.size;
 7e0:	02071693          	slli	a3,a4,0x20
 7e4:	01c6d713          	srli	a4,a3,0x1c
 7e8:	97ba                	add	a5,a5,a4
        p->s.size = nunits;
 7ea:	0137a423          	sw	s3,8(a5)
      freep = prevp;
 7ee:	00001717          	auipc	a4,0x1
 7f2:	80a73923          	sd	a0,-2030(a4) # 1000 <freep>
      return (void*)(p + 1);
 7f6:	01078513          	addi	a0,a5,16
  }
}
 7fa:	70e2                	ld	ra,56(sp)
 7fc:	7442                	ld	s0,48(sp)
 7fe:	74a2                	ld	s1,40(sp)
 800:	69e2                	ld	s3,24(sp)
 802:	6121                	addi	sp,sp,64
 804:	8082                	ret
 806:	7902                	ld	s2,32(sp)
 808:	6a42                	ld	s4,16(sp)
 80a:	6aa2                	ld	s5,8(sp)
 80c:	6b02                	ld	s6,0(sp)
 80e:	b7f5                	j	7fa <malloc+0xea>
